(lp0
V212716779
p1
aV4868058659
p2
aV191372998
p3
aV219276477
p4
aV257277182
p5
aV5641770274
p6
aV20595746
p7
aV21970865
p8
aV175743979
p9
aV4985655315
p10
aV228863186
p11
aV3198576148
p12
aV4732122555
p13
aV5775690262
p14
aV2077325729
p15
aV39948499
p16
aV5809373158
p17
aV5408286985
p18
aV1549009380
p19
aV284292076
p20
aV5809220316
p21
aV2020271654
p22
aV1544027555
p23
aV326622350
p24
aV2964337279
p25
aV1986149756
p26
aV2182613943
p27
aV1321188440
p28
aV183623692
p29
aV281903677
p30
aV5613525274
p31
aV1527095136
p32
aV5740488240
p33
aV174356164
p34
aV5309906
p35
aV778819860
p36
aV258979101
p37
aV181598475
p38
aV1450566526
p39
aV10344070
p40
aV2222985006
p41
aV5411049305
p42
aV3104241188
p43
aV1642902934
p44
aV522534729
p45
aV3898380638
p46
aV15917584
p47
aV387204128
p48
aV1145107235
p49
aV3216707415
p50
aV1628391544
p51
aV31008857
p52
aV522119376
p53
aV311859252
p54
aV3535797
p55
aV647787304
p56
aV3588968627
p57
aV1332314884
p58
aV218987473
p59
aV1815870905
p60
aV245558933
p61
aV1147898563
p62
aV192780385
p63
aV4642309535
p64
aV1509841178
p65
aV5803985423
p66
aV45224921
p67
aV10312297
p68
aV4609417763
p69
aV27928574
p70
aV46599896
p71
aV297808505
p72
aV257798968
p73
aV1724879300
p74
aV4085572719
p75
aV1242930867
p76
aV3168176665
p77
aV297886454
p78
aV3909373190
p79
aV2143014108
p80
aV4004480343
p81
aV43684170
p82
aV3068022091
p83
aV5572338056
p84
aV1984156240
p85
aV5667185249
p86
aV2260573946
p87
aV474078328
p88
aV1189756642
p89
aV1284351113
p90
aV5654942845
p91
aV466747628
p92
aV17193883
p93
aV1978099563
p94
aV206676212
p95
aV590218012
p96
aV186888464
p97
aV2227496189
p98
aV424927085
p99
aV4870284415
p100
aV326318698
p101
aV2647741779
p102
aV1505693201
p103
aV562216415
p104
aV218173128
p105
aV363103634
p106
aV3250125587
p107
aV3446811101
p108
aV4357245019
p109
aV1985513967
p110
aV3683511469
p111
aV5823500014
p112
aV15979038
p113
aV36598232
p114
aV4757376142
p115
aV4035941430
p116
aV1769441333
p117
aV35891670
p118
aV771455209
p119
aV1287272311
p120
aV1664637136
p121
aV1967485729
p122
aV406978280
p123
aV5686452350
p124
aV202193613
p125
aV1699259497
p126
aV4104451
p127
aV583737226
p128
aV1535667816
p129
aV4099743543
p130
aV409699969
p131
aV280646732
p132
aV4375722814
p133
aV2255096129
p134
aV3993719688
p135
aV181646351
p136
aV5619135251
p137
aV389980499
p138
aV718335529
p139
aV1784664044
p140
aV5808763103
p141
aV2673580580
p142
aV3911363216
p143
aV2023856345
p144
aV222704599
p145
aV205173685
p146
aV4758532940
p147
aV5716211625
p148
aV323518634
p149
aV5764877841
p150
aV4306082479
p151
aV5764455358
p152
aV2940730951
p153
aV1070064268
p154
aV25987442
p155
aV1681884341
p156
aV2133042908
p157
aV221768972
p158
aV1463492604
p159
aV2131735239
p160
aV3586451907
p161
aV14652943
p162
aV1538499854
p163
aV4121040168
p164
aV843599055
p165
aV2055290990
p166
aV217775858
p167
aV4809656918
p168
aV772347651
p169
aV1705691139
p170
aV1504373505
p171
aV965007466
p172
aV53216417
p173
aV340049818
p174
aV746479999
p175
aV1543486565
p176
aV4204156057
p177
aV349990102
p178
aV2265578878
p179
aV4126835411
p180
aV258885764
p181
aV16588293
p182
aV375879617
p183
aV728765890
p184
aV5709843754
p185
aV5415244739
p186
aV2228560294
p187
aV5373887867
p188
aV2521532979
p189
aV2905786898
p190
aV2140009700
p191
aV2201942728
p192
aV2927833699
p193
aV2205174428
p194
aV1317810565
p195
aV1496149729
p196
aV443396168
p197
aV608345395
p198
aV4273046470
p199
aV1481335569
p200
aV213218438
p201
aV5627741055
p202
aV4811175659
p203
aV1112544496
p204
aV7248536
p205
aV1692206542
p206
aV290295323
p207
aV1411577420
p208
aV1411871470
p209
aV1571062429
p210
aV248497987
p211
aV3128988005
p212
aV24401294
p213
aV52462531
p214
aV202279907
p215
aV4227826832
p216
aV1604686469
p217
aV3645187285
p218
aV1549716712
p219
aV490100829
p220
aV1392246500
p221
aV1726544171
p222
aV2098372963
p223
aV3652320776
p224
aV4472232492
p225
aV288359995
p226
aV236528993
p227
aV5569513316
p228
aV4778848494
p229
aV3049820047
p230
aV4336102264
p231
aV2370197557
p232
aV2099461410
p233
aV2297754178
p234
aV9448622
p235
aV1519489906
p236
aV3485320786
p237
aV2210867213
p238
aV4551576793
p239
aV3488723111
p240
aV280256817
p241
aV5741933527
p242
aV26465087
p243
aV2200931478
p244
aV1622234703
p245
aV1287194301
p246
aV4508660835
p247
aV258179310
p248
aV203233687
p249
aV192260728
p250
aV2775596618
p251
aV3852687941
p252
aV4941084654
p253
aV51424313
p254
aV52188585
p255
aV368211131
p256
aV336760239
p257
aV322316361
p258
aV1066603177
p259
aV2046459910
p260
aV1623977630
p261
aV43581093
p262
aV1795574629
p263
aV2110295764
p264
aV200017067
p265
aV35724986
p266
aV2334959454
p267
aV574383623
p268
aV1255648035
p269
aV1512161860
p270
aV3981315631
p271
aV34648530
p272
aV3605277992
p273
aV2042104848
p274
aV326702165
p275
aV46546811
p276
aV4615462363
p277
aV396458754
p278
aV253470337
p279
aV811676860
p280
aV1135844960
p281
aV533476320
p282
aV3099450677
p283
aV4244727270
p284
aV1514717874
p285
aV1531539141
p286
aV3247109706
p287
aV4223172444
p288
aV211662733
p289
aV181978364
p290
aV28845418
p291
aV1775558371
p292
aV13158734
p293
aV4202816415
p294
aV3077969456
p295
aV143619416
p296
aV2218065275
p297
aV2240915661
p298
aV2230041492
p299
aV5033940
p300
aV10371966
p301
aV4614759452
p302
aV933542270
p303
aV2640556839
p304
aV2238130633
p305
aV1771279059
p306
aV54639780
p307
aV3274610781
p308
aV1297849051
p309
aV1441237751
p310
aV5505050805
p311
aV3104615234
p312
aV4610448346
p313
aV3094619080
p314
aV2035271458
p315
aV5371030760
p316
aV297977099
p317
aV338679036
p318
aV1293969259
p319
aV13191749
p320
aV4330181
p321
aV216107903
p322
aV509908458
p323
aV369513386
p324
aV3977288725
p325
aV1719982888
p326
aV4159569847
p327
aV1089943309
p328
aV206777804
p329
aV2317769946
p330
aV1379960648
p331
aV1354112659
p332
aV234780025
p333
aV4028705846
p334
aV1799382510
p335
aV3177947916
p336
aV5376537405
p337
aV22416390
p338
aV40718992
p339
aV618382809
p340
aV17928065
p341
aV750456565
p342
aV1261410204
p343
aV248524959
p344
aV1727060844
p345
aV16910867
p346
aV1078614549
p347
aV3970828758
p348
aV2138905434
p349
aV5713149094
p350
aV7296567
p351
aV2492903
p352
aV2113012654
p353
aV3546280
p354
aV4629170298
p355
aV4520381533
p356
aV4027022
p357
aV1068890515
p358
aV3213630838
p359
aV4333767800
p360
aV1416737680
p361
aV5389656649
p362
aV1740507267
p363
aV8981682
p364
aV1638443757
p365
aV176175665
p366
aV876531642
p367
aV3148057354
p368
aV2966794358
p369
aV15643293
p370
aV4001518440
p371
aV3122039737
p372
aV305647265
p373
aV2273689838
p374
aV216820342
p375
aV2159520604
p376
aV236460866
p377
aV9379144
p378
aV4232869788
p379
aV294712494
p380
aV1203772288
p381
aV226836243
p382
aV3259249476
p383
aV5070161679
p384
aV5468655912
p385
aV1139037852
p386
aV30718615
p387
aV4762255878
p388
aV1472449050
p389
aV245964552
p390
aV1975320392
p391
aV329592086
p392
aV3218021210
p393
aV5790094816
p394
aV1564304865
p395
aV295402937
p396
aV973540125
p397
aV2318972744
p398
aV4242273939
p399
aV5767786579
p400
aV4259601150
p401
aV625382277
p402
aV1540861324
p403
aV40930396
p404
aV2251005756
p405
aV1285645078
p406
aV255831976
p407
aV2271520782
p408
aV5345519192
p409
aV1465196472
p410
aV2844579450
p411
aV5402708218
p412
aV268180376
p413
aV205446103
p414
aV1462845701
p415
aV4082952005
p416
aV2210863033
p417
aV3028779975
p418
aV297293997
p419
aV1210108435
p420
aV1596657870
p421
aV264703400
p422
aV10941569
p423
aV3714251974
p424
aV1600879831
p425
aV582214950
p426
aV2990572392
p427
aV2135222621
p428
aV1715734261
p429
aV4907247936
p430
aV203753599
p431
aV1480919152
p432
aV198142396
p433
aV1303539803
p434
aV1931782602
p435
aV500588272
p436
aV3037122020
p437
aV33996977
p438
aV54445592
p439
aV27977130
p440
aV3264804197
p441
aV1570847113
p442
aV351009744
p443
aV179122907
p444
aV5760459444
p445
aV181840624
p446
aV1265645840
p447
aV1314725824
p448
aV272222507
p449
aV730632343
p450
aV299458892
p451
aV344498067
p452
aV54792064
p453
aV1750389565
p454
aV1553287218
p455
aV240882356
p456
aV4868861818
p457
aV5791742187
p458
aV1905157068
p459
aV5431509219
p460
aV279079443
p461
aV30187735
p462
aV3092330452
p463
aV5638541817
p464
aV30415157
p465
aV2679078888
p466
aV3650249019
p467
aV28594909
p468
aV2157569443
p469
aV2013748626
p470
aV243468367
p471
aV1937905634
p472
aV224918933
p473
aV1994007412
p474
aV1693321816
p475
aV5545379683
p476
aV4974211487
p477
aV3687509691
p478
aV4115389239
p479
aV260710446
p480
aV220811655
p481
aV4930353438
p482
aV2962350049
p483
aV1384050982
p484
aV4405058571
p485
aV782825624
p486
aV1496458789
p487
aV35251001
p488
aV4246412172
p489
aV3243304426
p490
aV3249788376
p491
aV562094677
p492
aV2895724261
p493
aV5458190377
p494
aV1504216588
p495
aV5445771816
p496
aV3946711281
p497
aV1556846746
p498
aV5392530531
p499
aV12512543
p500
aV182043662
p501
aV208716506
p502
aV1970437707
p503
aV2336329068
p504
aV5524210847
p505
aV4125671545
p506
aV174502045
p507
aV231188624
p508
aV4474492608
p509
aV4965494884
p510
aV1940027170
p511
aV1378997630
p512
aV422588459
p513
aV5481830387
p514
aV676545012
p515
aV570370641
p516
aV1419363648
p517
aV244852511
p518
aV2104946272
p519
aV2271468435
p520
aV7941822
p521
aV3866217
p522
aV3093406236
p523
aV1934477477
p524
aV967152473
p525
aV261141616
p526
aV1746395356
p527
aV10362802
p528
aV34593997
p529
aV300690629
p530
aV1679810057
p531
aV5742726523
p532
aV1150881573
p533
aV1451109538
p534
aV174977096
p535
aV4165446151
p536
aV5727799866
p537
aV537038752
p538
aV144851858
p539
aV359638939
p540
aV3130343710
p541
aV4171506619
p542
aV31459932
p543
aV179598945
p544
aV5683615720
p545
aV2103151113
p546
aV3313067070
p547
aV290445738
p548
aV360593007
p549
aV328031213
p550
aV4150246712
p551
aV307289048
p552
aV285541825
p553
aV529824323
p554
aV254192841
p555
aV1538666446
p556
aV5814833941
p557
aV236011714
p558
aV1664553120
p559
aV2238217211
p560
aV1722289404
p561
aV2270423649
p562
aV11461849
p563
aV29949385
p564
aV1195534687
p565
aV5458110331
p566
aV4517610981
p567
aV5563361744
p568
aV31180946
p569
aV307302381
p570
aV2329665845
p571
aV192467052
p572
aV5401955992
p573
aV48624992
p574
aV287421094
p575
aV11520678
p576
aV5760072741
p577
aV2284615384
p578
a.