(lp0
V5815717593
p1
aV259401621
p2
aV5447204742
p3
aV242917590
p4
aV28835421
p5
aV261784940
p6
aV1411871470
p7
aV37467744
p8
aV264100974
p9
aV22873911
p10
aV2293324709
p11
aV5801217673
p12
aV3877755359
p13
aV5776968967
p14
aV1051728579
p15
aV5800160968
p16
aV5813948820
p17
aV4079377606
p18
aV789387740
p19
aV4051960939
p20
aV5820799630
p21
aV2065723960
p22
aV1571062429
p23
aV1554006552
p24
aV4208093152
p25
aV253809101
p26
aV5768458791
p27
aV1560231970
p28
aV4950775750
p29
aV5756228145
p30
aV4246456274
p31
aV3404036317
p32
aV1032837291
p33
aV300681460
p34
aV531030355
p35
aV1396523635
p36
aV2236910947
p37
aV2315684067
p38
aV5821433914
p39
aV210017942
p40
aV248497987
p41
aV2731079255
p42
aV2090570158
p43
aV832061479
p44
aV460958919
p45
aV24401294
p46
aV4355118164
p47
aV5762357534
p48
aV216801624
p49
aV5377113427
p50
aV629113498
p51
aV2306971420
p52
aV3269940120
p53
aV5379090976
p54
aV377073216
p55
aV4273046470
p56
aV3150970243
p57
aV486584
p58
aV3258688796
p59
aV4160734575
p60
aV378846131
p61
aV3470900234
p62
aV2116573511
p63
aV19023236
p64
aV52462531
p65
aV2080754924
p66
aV2305011938
p67
aV4034519752
p68
aV176631064
p69
aV2990337444
p70
aV1625806004
p71
aV1345723958
p72
aV743868762
p73
aV442435388
p74
aV3609868475
p75
aV1583283215
p76
aV1647907784
p77
aV2253796915
p78
aV515400547
p79
aV1319260466
p80
aV2202794388
p81
aV3120477943
p82
aV24035813
p83
aV5734321575
p84
aV1167701497
p85
aV5624014408
p86
aV3323594336
p87
aV183999707
p88
aV1749651017
p89
aV1697798240
p90
aV5465021116
p91
aV4822434245
p92
aV1643604975
p93
aV2035134972
p94
aV2114948869
p95
aV5577534581
p96
aV5502527358
p97
aV5597239025
p98
aV2169032459
p99
aV5569571904
p100
aV391687547
p101
aV569378960
p102
aV207155098
p103
aV997788218
p104
aV711895718
p105
aV5531178493
p106
aV2227496189
p107
aV201036933
p108
aV270108420
p109
aV2713920887
p110
aV538350581
p111
aV2728086271
p112
aV317062312
p113
aV936950033
p114
aV5813842664
p115
aV1833426928
p116
aV1392246500
p117
aV416501354
p118
aV346149091
p119
aV1655427559
p120
aV288359995
p121
aV4566264228
p122
aV4160860502
p123
aV299761823
p124
aV5754311238
p125
aV187871672
p126
a.