(lp0
V3225844640
p1
aV5797270243
p2
aV1412583552
p3
aV1711100774
p4
aV3131738401
p5
aV3923015625
p6
aV5399976745
p7
aV1966679527
p8
aV3494799979
p9
aV209926589
p10
aV1682392230
p11
aV2949181428
p12
aV5576561939
p13
aV3602281041
p14
aV208433016
p15
aV390459173
p16
aV1736634025
p17
aV1826136975
p18
aV3461768191
p19
a.